target datalayout = "e-m:e-p270:32:32-p271:32:32-p272:64:64-i64:64-i128:128-f80:128-n8:16:32:64-S128"
target triple = "x86_64-pc-linux-gnu"

%struct.gmx_ana_index_t = type { i32, ptr, i32 }

; Function Attrs: mustprogress nounwind uwtable
define void @_Z24gmx_ana_index_differenceP15gmx_ana_index_tS0_S0_(ptr noundef %0, ptr noundef %1, ptr noundef %2) #1 {
  %4 = alloca ptr, align 8
  %5 = alloca ptr, align 8
  %6 = alloca ptr, align 8
  %7 = alloca i32, align 4
  %8 = alloca i32, align 4
  %9 = alloca i32, align 4
  store ptr %0, ptr %4, align 8, !tbaa !232
  store ptr %1, ptr %5, align 8, !tbaa !232
  store ptr %2, ptr %6, align 8, !tbaa !232
  call void @llvm.lifetime.start.p0(i64 4, ptr %7) #19
  call void @llvm.lifetime.start.p0(i64 4, ptr %8) #19
  call void @llvm.lifetime.start.p0(i64 4, ptr %9) #19
  store i32 0, ptr %9, align 4, !tbaa !114
  store i32 0, ptr %8, align 4, !tbaa !114
  store i32 0, ptr %7, align 4, !tbaa !114
  br label %10

10:                                               ; preds = %82, %3
  %11 = load i32, ptr %7, align 4, !tbaa !114
  %12 = load ptr, ptr %5, align 8, !tbaa !232
  %13 = getelementptr inbounds nuw %struct.gmx_ana_index_t, ptr %12, i32 0, i32 0
  %14 = load i32, ptr %13, align 8, !tbaa !234
  %15 = icmp slt i32 %11, %14
  br i1 %15, label %16, label %85

16:                                               ; preds = %10
  br label %17

17:                                               ; preds = %41, %16
  %18 = load i32, ptr %8, align 4, !tbaa !114
  %19 = load ptr, ptr %6, align 8, !tbaa !232
  %20 = getelementptr inbounds nuw %struct.gmx_ana_index_t, ptr %19, i32 0, i32 0
  %21 = load i32, ptr %20, align 8, !tbaa !234
  %22 = icmp slt i32 %18, %21
  br i1 %22, label %23, label %39

23:                                               ; preds = %17
  %24 = load ptr, ptr %6, align 8, !tbaa !232
  %25 = getelementptr inbounds nuw %struct.gmx_ana_index_t, ptr %24, i32 0, i32 1
  %26 = load ptr, ptr %25, align 8, !tbaa !236
  %27 = load i32, ptr %8, align 4, !tbaa !114
  %28 = sext i32 %27 to i64
  %29 = getelementptr inbounds i32, ptr %26, i64 %28
  %30 = load i32, ptr %29, align 4, !tbaa !114
  %31 = load ptr, ptr %5, align 8, !tbaa !232
  %32 = getelementptr inbounds nuw %struct.gmx_ana_index_t, ptr %31, i32 0, i32 1
  %33 = load ptr, ptr %32, align 8, !tbaa !236
  %34 = load i32, ptr %7, align 4, !tbaa !114
  %35 = sext i32 %34 to i64
  %36 = getelementptr inbounds i32, ptr %33, i64 %35
  %37 = load i32, ptr %36, align 4, !tbaa !114
  %38 = icmp slt i32 %30, %37
  br label %39

39:                                               ; preds = %23, %17
  %40 = phi i1 [ false, %17 ], [ %38, %23 ]
  br i1 %40, label %41, label %44

41:                                               ; preds = %39
  %42 = load i32, ptr %8, align 4, !tbaa !114
  %43 = add nsw i32 %42, 1
  store i32 %43, ptr %8, align 4, !tbaa !114
  br label %17, !llvm.loop !336

44:                                               ; preds = %39
  %45 = load i32, ptr %8, align 4, !tbaa !114
  %46 = load ptr, ptr %6, align 8, !tbaa !232
  %47 = getelementptr inbounds nuw %struct.gmx_ana_index_t, ptr %46, i32 0, i32 0
  %48 = load i32, ptr %47, align 8, !tbaa !234
  %49 = icmp eq i32 %45, %48
  br i1 %49, label %66, label %50

50:                                               ; preds = %44
  %51 = load ptr, ptr %6, align 8, !tbaa !232
  %52 = getelementptr inbounds nuw %struct.gmx_ana_index_t, ptr %51, i32 0, i32 1
  %53 = load ptr, ptr %52, align 8, !tbaa !236
  %54 = load i32, ptr %8, align 4, !tbaa !114
  %55 = sext i32 %54 to i64
  %56 = getelementptr inbounds i32, ptr %53, i64 %55
  %57 = load i32, ptr %56, align 4, !tbaa !114
  %58 = load ptr, ptr %5, align 8, !tbaa !232
  %59 = getelementptr inbounds nuw %struct.gmx_ana_index_t, ptr %58, i32 0, i32 1
  %60 = load ptr, ptr %59, align 8, !tbaa !236
  %61 = load i32, ptr %7, align 4, !tbaa !114
  %62 = sext i32 %61 to i64
  %63 = getelementptr inbounds i32, ptr %60, i64 %62
  %64 = load i32, ptr %63, align 4, !tbaa !114
  %65 = icmp ne i32 %57, %64
  br i1 %65, label %66, label %81

66:                                               ; preds = %50, %44
  %67 = load ptr, ptr %5, align 8, !tbaa !232
  %68 = getelementptr inbounds nuw %struct.gmx_ana_index_t, ptr %67, i32 0, i32 1
  %69 = load ptr, ptr %68, align 8, !tbaa !236
  %70 = load i32, ptr %7, align 4, !tbaa !114
  %71 = sext i32 %70 to i64
  %72 = getelementptr inbounds i32, ptr %69, i64 %71
  %73 = load i32, ptr %72, align 4, !tbaa !114
  %74 = load ptr, ptr %4, align 8, !tbaa !232
  %75 = getelementptr inbounds nuw %struct.gmx_ana_index_t, ptr %74, i32 0, i32 1
  %76 = load ptr, ptr %75, align 8, !tbaa !236
  %77 = load i32, ptr %9, align 4, !tbaa !114
  %78 = add nsw i32 %77, 1
  store i32 %78, ptr %9, align 4, !tbaa !114
  %79 = sext i32 %77 to i64
  %80 = getelementptr inbounds i32, ptr %76, i64 %79
  store i32 %73, ptr %80, align 4, !tbaa !114
  br label %81

81:                                               ; preds = %66, %50
  br label %82

82:                                               ; preds = %81
  %83 = load i32, ptr %7, align 4, !tbaa !114
  %84 = add nsw i32 %83, 1
  store i32 %84, ptr %7, align 4, !tbaa !114
  br label %10, !llvm.loop !337

85:                                               ; preds = %10
  %86 = load i32, ptr %9, align 4, !tbaa !114
  %87 = load ptr, ptr %4, align 8, !tbaa !232
  %88 = getelementptr inbounds nuw %struct.gmx_ana_index_t, ptr %87, i32 0, i32 0
  store i32 %86, ptr %88, align 8, !tbaa !234
  call void @llvm.lifetime.end.p0(i64 4, ptr %9) #19
  call void @llvm.lifetime.end.p0(i64 4, ptr %8) #19
  call void @llvm.lifetime.end.p0(i64 4, ptr %7) #19
  ret void
}