; Function Attrs: mustprogress nofree norecurse nosync nounwind memory(readwrite, inaccessiblemem: none) uwtable
define void @_Z24gmx_ana_index_differenceP15gmx_ana_index_tS0_S0_(ptr noundef captures(none) %0, ptr noundef readonly captures(none) %1, ptr noundef readonly captures(none) %2) local_unnamed_addr #20 {
  %4 = load i32, ptr %1, align 8, !tbaa !73
  %5 = icmp sgt i32 %4, 0
  br i1 %5, label %.preheader.lr.ph, label %._crit_edge

.preheader.lr.ph:                                 ; preds = %3
  %6 = getelementptr inbounds nuw i8, ptr %2, i64 8
  %7 = getelementptr inbounds nuw i8, ptr %1, i64 8
  %8 = getelementptr inbounds nuw i8, ptr %0, i64 8
  %.pre.pre.pre = load ptr, ptr %7, align 8, !tbaa !108
  br label %.preheader

.preheader:                                       ; preds = %.preheader.lr.ph, %37
  %9 = phi i32 [ %4, %.preheader.lr.ph ], [ %38, %37 ]
  %indvars.iv34 = phi i64 [ 0, %.preheader.lr.ph ], [ %indvars.iv.next35, %37 ]
  %.031 = phi i32 [ 0, %.preheader.lr.ph ], [ %.1, %37 ]
  %.02130 = phi i32 [ 0, %.preheader.lr.ph ], [ %.122.lcssa41, %37 ]
  %10 = load i32, ptr %2, align 8, !tbaa !73
  %11 = icmp slt i32 %.02130, %10
  br i1 %11, label %.lr.ph, label %.critedge

.lr.ph:                                           ; preds = %.preheader
  %12 = load ptr, ptr %6, align 8, !tbaa !108
  %13 = getelementptr inbounds nuw i32, ptr %.pre.pre.pre, i64 %indvars.iv34
  %14 = load i32, ptr %13, align 4, !tbaa !36
  %15 = sext i32 %.02130 to i64
  %16 = sext i32 %10 to i64
  br label %17

17:                                               ; preds = %.lr.ph, %21
  %indvars.iv = phi i64 [ %15, %.lr.ph ], [ %indvars.iv.next, %21 ]
  %18 = getelementptr inbounds i32, ptr %12, i64 %indvars.iv
  %19 = load i32, ptr %18, align 4, !tbaa !36
  %20 = icmp slt i32 %19, %14
  br i1 %20, label %21, label %.critedge.loopexit

21:                                               ; preds = %17
  %indvars.iv.next = add nsw i64 %indvars.iv, 1
  %exitcond.not = icmp eq i64 %indvars.iv.next, %16
  br i1 %exitcond.not, label %.critedge._crit_edge, label %17, !llvm.loop !133

.critedge.loopexit:                               ; preds = %17
  %22 = trunc nsw i64 %indvars.iv to i32
  br label %.critedge

.critedge:                                        ; preds = %.critedge.loopexit, %.preheader
  %.122.lcssa = phi i32 [ %.02130, %.preheader ], [ %22, %.critedge.loopexit ]
  %23 = icmp eq i32 %.122.lcssa, %10
  br i1 %23, label %.critedge._crit_edge, label %24

.critedge._crit_edge:                             ; preds = %21, %.critedge
  %.122.lcssa42 = phi i32 [ %.122.lcssa, %.critedge ], [ %10, %21 ]
  %.phi.trans.insert = getelementptr inbounds nuw i32, ptr %.pre.pre.pre, i64 %indvars.iv34
  %.pre37 = load i32, ptr %.phi.trans.insert, align 4, !tbaa !36
  br label %31

24:                                               ; preds = %.critedge
  %25 = load ptr, ptr %6, align 8, !tbaa !108
  %26 = sext i32 %.122.lcssa to i64
  %27 = getelementptr inbounds i32, ptr %25, i64 %26
  %28 = load i32, ptr %27, align 4, !tbaa !36
  %29 = getelementptr inbounds nuw i32, ptr %.pre.pre.pre, i64 %indvars.iv34
  %30 = load i32, ptr %29, align 4, !tbaa !36
  %.not = icmp eq i32 %28, %30
  br i1 %.not, label %37, label %31

31:                                               ; preds = %.critedge._crit_edge, %24
  %.122.lcssa40 = phi i32 [ %.122.lcssa42, %.critedge._crit_edge ], [ %.122.lcssa, %24 ]
  %32 = phi i32 [ %.pre37, %.critedge._crit_edge ], [ %30, %24 ]
  %33 = load ptr, ptr %8, align 8, !tbaa !108
  %34 = add nsw i32 %.031, 1
  %35 = sext i32 %.031 to i64
  %36 = getelementptr inbounds i32, ptr %33, i64 %35
  store i32 %32, ptr %36, align 4, !tbaa !36
  %.pre38 = load i32, ptr %1, align 8, !tbaa !73
  br label %37

37:                                               ; preds = %24, %31
  %.122.lcssa41 = phi i32 [ %.122.lcssa40, %31 ], [ %.122.lcssa, %24 ]
  %38 = phi i32 [ %.pre38, %31 ], [ %9, %24 ]
  %.1 = phi i32 [ %34, %31 ], [ %.031, %24 ]
  %indvars.iv.next35 = add nuw nsw i64 %indvars.iv34, 1
  %39 = sext i32 %38 to i64
  %40 = icmp slt i64 %indvars.iv.next35, %39
  br i1 %40, label %.preheader, label %._crit_edge, !llvm.loop !134

._crit_edge:                                      ; preds = %37, %3
  %.0.lcssa = phi i32 [ 0, %3 ], [ %.1, %37 ]
  store i32 %.0.lcssa, ptr %0, align 8, !tbaa !73
  ret void
}